; Function Attrs: nounwind uwtable
define internal fastcc void @_submit_wbuf(ptr noundef %0, ptr noundef nonnull readonly captures(none) %1) unnamed_addr #0 {
  %3 = tail call i32 @pthread_mutex_lock(ptr noundef %0) #13
  %4 = getelementptr inbounds nuw i8, ptr %0, i64 56
  %5 = load ptr, ptr %4, align 8, !tbaa !96
  %6 = getelementptr inbounds nuw i8, ptr %5, i64 8
  %7 = load ptr, ptr %6, align 8, !tbaa !103
  store ptr %7, ptr %4, align 8, !tbaa !96
  %8 = tail call i32 @pthread_mutex_unlock(ptr noundef %0) #13
  %9 = getelementptr inbounds nuw i8, ptr %1, i64 104
  %10 = load ptr, ptr %9, align 8, !tbaa !121
  %11 = getelementptr inbounds nuw i8, ptr %10, i64 8
  %12 = load ptr, ptr %11, align 8, !tbaa !97
  %13 = getelementptr inbounds nuw i8, ptr %10, i64 28
  %14 = load i32, ptr %13, align 4, !tbaa !101
  %15 = getelementptr inbounds nuw i8, ptr %10, i64 24
  %16 = load i32, ptr %15, align 8, !tbaa !100
  %17 = sub i32 %14, %16
  %18 = zext i32 %17 to i64
  %19 = getelementptr inbounds nuw i8, ptr %12, i64 %18
  %20 = zext i32 %16 to i64
  tail call void @llvm.memset.p0.i64(ptr align 1 %19, i8 0, i64 %20, i1 false)
  store ptr null, ptr %6, align 8, !tbaa !103
  %21 = getelementptr inbounds nuw i8, ptr %5, i64 52
  store i32 1, ptr %21, align 4, !tbaa !118
  %22 = getelementptr inbounds nuw i8, ptr %1, i64 92
  %23 = load i16, ptr %22, align 4, !tbaa !38
  %24 = getelementptr inbounds nuw i8, ptr %5, i64 48
  store i16 %23, ptr %24, align 8, !tbaa !117
  store ptr %10, ptr %5, align 8, !tbaa !138
  %25 = getelementptr inbounds nuw i8, ptr %10, i64 32
  %26 = load i32, ptr %25, align 8, !tbaa !124
  %27 = getelementptr inbounds nuw i8, ptr %5, i64 44
  store i32 %26, ptr %27, align 4, !tbaa !120
  %28 = load i32, ptr %13, align 4, !tbaa !101
  %29 = getelementptr inbounds nuw i8, ptr %5, i64 40
  store i32 %28, ptr %29, align 8, !tbaa !125
  %30 = load ptr, ptr %11, align 8, !tbaa !97
  %31 = getelementptr inbounds nuw i8, ptr %5, i64 16
  store ptr %30, ptr %31, align 8, !tbaa !123
  %32 = getelementptr inbounds nuw i8, ptr %5, i64 56
  store ptr @_wbuf_cb, ptr %32, align 8, !tbaa !133
  %33 = getelementptr inbounds nuw i8, ptr %0, i64 72
  %34 = load ptr, ptr %33, align 8, !tbaa !113
  br label %.lr.ph.i.i

.lr.ph.i.i:                                       ; preds = %2, %.lr.ph.i.i
  %.0183.i.i = phi ptr [ %37, %.lr.ph.i.i ], [ %5, %2 ]
  %.0192.i.i = phi i32 [ %35, %.lr.ph.i.i ], [ 0, %2 ]
  %35 = add i32 %.0192.i.i, 1
  %36 = getelementptr inbounds nuw i8, ptr %.0183.i.i, i64 8
  %37 = load ptr, ptr %36, align 8, !tbaa !103
  %.not.i.i = icmp eq ptr %37, null
  br i1 %.not.i.i, label %._crit_edge.i.i, label %.lr.ph.i.i, !llvm.loop !139

._crit_edge.i.i:                                  ; preds = %.lr.ph.i.i
  %38 = tail call i32 @pthread_mutex_lock(ptr noundef %34) #13
  %39 = getelementptr inbounds nuw i8, ptr %34, i64 112
  %40 = load i32, ptr %39, align 8, !tbaa !27
  %41 = add i32 %40, %35
  store i32 %41, ptr %39, align 8, !tbaa !27
  %42 = getelementptr inbounds nuw i8, ptr %34, i64 88
  %43 = load ptr, ptr %42, align 8, !tbaa !114
  %44 = icmp eq ptr %43, null
  br i1 %44, label %45, label %47

45:                                               ; preds = %._crit_edge.i.i
  store ptr %5, ptr %42, align 8, !tbaa !114
  %46 = getelementptr inbounds nuw i8, ptr %34, i64 96
  store ptr %.0183.i.i, ptr %46, align 8, !tbaa !116
  br label %extstore_submit_bg.exit

47:                                               ; preds = %._crit_edge.i.i
  %48 = getelementptr inbounds nuw i8, ptr %34, i64 96
  %49 = load ptr, ptr %48, align 8, !tbaa !116
  %50 = getelementptr inbounds nuw i8, ptr %49, i64 8
  store ptr %5, ptr %50, align 8, !tbaa !103
  store ptr %.0183.i.i, ptr %48, align 8, !tbaa !116
  br label %extstore_submit_bg.exit

extstore_submit_bg.exit:                          ; preds = %45, %47
  %51 = tail call i32 @pthread_mutex_unlock(ptr noundef nonnull %34) #13
  %52 = getelementptr inbounds nuw i8, ptr %34, i64 40
  %53 = tail call i32 @pthread_cond_signal(ptr noundef nonnull %52) #13
  ret void
}